target datalayout = "e-m:e-p270:32:32-p271:32:32-p272:64:64-i64:64-i128:128-f80:128-n8:16:32:64-S128"
target triple = "x86_64-pc-linux-gnu"

%struct.Vec_Int_t_ = type { i32, i32, ptr }
%struct.Bac_Ntk_t_ = type { ptr, i32, i32, i32, i32, i32, i32, %struct.Vec_Int_t_, %struct.Vec_Int_t_, %struct.Vec_Int_t_, %struct.Vec_Str_t_, %struct.Vec_Int_t_, %struct.Vec_Int_t_, %struct.Vec_Int_t_, %struct.Vec_Int_t_, %struct.Vec_Int_t_, %struct.Vec_Int_t_, %struct.Vec_Int_t_ }
%struct.Vec_Str_t_ = type { i32, i32, ptr }
%struct.Bac_Man_t_ = type { ptr, ptr, ptr, ptr, i32, i32, ptr, ptr, ptr, %struct.Vec_Int_t_, %struct.Vec_Int_t_, %struct.Vec_Int_t_, %struct.Vec_Int_t_, ptr, ptr, [4 x i32], [73 x ptr], [73 x ptr] }

; Function Attrs: inlinehint nounwind uwtable
define internal i32 @Bac_ManNtkNum(ptr noundef %0) #2 {
  %2 = alloca ptr, align 8
  store ptr %0, ptr %2, align 8, !tbaa !31
  %3 = load ptr, ptr %2, align 8, !tbaa !31
  %4 = getelementptr inbounds nuw %struct.Bac_Man_t_, ptr %3, i32 0, i32 5
  %5 = load i32, ptr %4, align 4, !tbaa !42
  ret i32 %5
}

; Function Attrs: inlinehint nounwind uwtable
define internal i32 @Bac_ObjIsBi(ptr noundef %0, i32 noundef %1) #2 {
  %3 = alloca ptr, align 8
  %4 = alloca i32, align 4
  store ptr %0, ptr %3, align 8, !tbaa !19
  store i32 %1, ptr %4, align 4, !tbaa !8
  %5 = load ptr, ptr %3, align 8, !tbaa !19
  %6 = load i32, ptr %4, align 4, !tbaa !8
  %7 = call i32 @Bac_ObjType(ptr noundef %5, i32 noundef %6)
  %8 = icmp eq i32 %7, 3
  %9 = zext i1 %8 to i32
  ret i32 %9
}

; Function Attrs: inlinehint nounwind uwtable
define internal i32 @Bac_ManNtkIsOk(ptr noundef %0, i32 noundef %1) #2 {
  %3 = alloca ptr, align 8
  %4 = alloca i32, align 4
  store ptr %0, ptr %3, align 8, !tbaa !31
  store i32 %1, ptr %4, align 4, !tbaa !8
  %5 = load i32, ptr %4, align 4, !tbaa !8
  %6 = icmp sgt i32 %5, 0
  br i1 %6, label %7, label %12

7:                                                ; preds = %2
  %8 = load i32, ptr %4, align 4, !tbaa !8
  %9 = load ptr, ptr %3, align 8, !tbaa !31
  %10 = call i32 @Bac_ManNtkNum(ptr noundef %9)
  %11 = icmp sle i32 %8, %10
  br label %12

12:                                               ; preds = %7, %2
  %13 = phi i1 [ false, %2 ], [ %11, %7 ]
  %14 = zext i1 %13 to i32
  ret i32 %14
}

; Function Attrs: inlinehint nounwind uwtable
define internal i32 @Vec_IntEntry(ptr noundef %0, i32 noundef %1) #2 {
  %3 = alloca ptr, align 8
  %4 = alloca i32, align 4
  store ptr %0, ptr %3, align 8, !tbaa !21
  store i32 %1, ptr %4, align 4, !tbaa !8
  %5 = load ptr, ptr %3, align 8, !tbaa !21
  %6 = getelementptr inbounds nuw %struct.Vec_Int_t_, ptr %5, i32 0, i32 2
  %7 = load ptr, ptr %6, align 8, !tbaa !33
  %8 = load i32, ptr %4, align 4, !tbaa !8
  %9 = sext i32 %8 to i64
  %10 = getelementptr inbounds i32, ptr %7, i64 %9
  %11 = load i32, ptr %10, align 4, !tbaa !8
  ret i32 %11
}

; Function Attrs: inlinehint nounwind uwtable
define internal i32 @Abc_Lit2Var(i32 noundef %0) #2 {
  %2 = alloca i32, align 4
  store i32 %0, ptr %2, align 4, !tbaa !8
  %3 = load i32, ptr %2, align 4, !tbaa !8
  %4 = ashr i32 %3, 1
  ret i32 %4
}

; Function Attrs: inlinehint nounwind uwtable
define internal signext i8 @Vec_StrEntry(ptr noundef %0, i32 noundef %1) #2 {
  %3 = alloca ptr, align 8
  %4 = alloca i32, align 4
  store ptr %0, ptr %3, align 8, !tbaa !102
  store i32 %1, ptr %4, align 4, !tbaa !8
  %5 = load ptr, ptr %3, align 8, !tbaa !102
  %6 = getelementptr inbounds nuw %struct.Vec_Str_t_, ptr %5, i32 0, i32 2
  %7 = load ptr, ptr %6, align 8, !tbaa !105
  %8 = load i32, ptr %4, align 4, !tbaa !8
  %9 = sext i32 %8 to i64
  %10 = getelementptr inbounds i8, ptr %7, i64 %9
  %11 = load i8, ptr %10, align 1, !tbaa !29
  ret i8 %11
}

; Function Attrs: inlinehint nounwind uwtable
define internal i32 @Bac_BoxBiNum(ptr noundef %0, i32 noundef %1) #2 {
  %3 = alloca ptr, align 8
  %4 = alloca i32, align 4
  %5 = alloca i32, align 4
  store ptr %0, ptr %3, align 8, !tbaa !19
  store i32 %1, ptr %4, align 4, !tbaa !8
  call void @llvm.lifetime.start.p0(i64 4, ptr %5) #10
  %6 = load i32, ptr %4, align 4, !tbaa !8
  %7 = sub nsw i32 %6, 1
  store i32 %7, ptr %5, align 4, !tbaa !8
  br label %8

8:                                                ; preds = %19, %2
  %9 = load i32, ptr %4, align 4, !tbaa !8
  %10 = add nsw i32 %9, -1
  store i32 %10, ptr %4, align 4, !tbaa !8
  %11 = icmp sge i32 %10, 0
  br i1 %11, label %12, label %17

12:                                               ; preds = %8
  %13 = load ptr, ptr %3, align 8, !tbaa !19
  %14 = load i32, ptr %4, align 4, !tbaa !8
  %15 = call i32 @Bac_ObjIsBi(ptr noundef %13, i32 noundef %14)
  %16 = icmp ne i32 %15, 0
  br label %17

17:                                               ; preds = %12, %8
  %18 = phi i1 [ false, %8 ], [ %16, %12 ]
  br i1 %18, label %19, label %20

19:                                               ; preds = %17
  br label %8, !llvm.loop !106

20:                                               ; preds = %17
  %21 = load i32, ptr %5, align 4, !tbaa !8
  %22 = load i32, ptr %4, align 4, !tbaa !8
  %23 = sub nsw i32 %21, %22
  call void @llvm.lifetime.end.p0(i64 4, ptr %5) #10
  ret i32 %23
}

; Function Attrs: inlinehint nounwind uwtable
define internal i32 @Bac_ObjIsBo(ptr noundef %0, i32 noundef %1) #2 {
  %3 = alloca ptr, align 8
  %4 = alloca i32, align 4
  store ptr %0, ptr %3, align 8, !tbaa !19
  store i32 %1, ptr %4, align 4, !tbaa !8
  %5 = load ptr, ptr %3, align 8, !tbaa !19
  %6 = load i32, ptr %4, align 4, !tbaa !8
  %7 = call i32 @Bac_ObjType(ptr noundef %5, i32 noundef %6)
  %8 = icmp eq i32 %7, 4
  %9 = zext i1 %8 to i32
  ret i32 %9
}

; Function Attrs: inlinehint nounwind uwtable
define internal ptr @Bac_ManNtk(ptr noundef %0, i32 noundef %1) #2 {
  %3 = alloca ptr, align 8
  %4 = alloca i32, align 4
  store ptr %0, ptr %3, align 8, !tbaa !31
  store i32 %1, ptr %4, align 4, !tbaa !8
  %5 = load ptr, ptr %3, align 8, !tbaa !31
  %6 = load i32, ptr %4, align 4, !tbaa !8
  %7 = call i32 @Bac_ManNtkIsOk(ptr noundef %5, i32 noundef %6)
  %8 = icmp ne i32 %7, 0
  br i1 %8, label %9, label %16

9:                                                ; preds = %2
  %10 = load ptr, ptr %3, align 8, !tbaa !31
  %11 = getelementptr inbounds nuw %struct.Bac_Man_t_, ptr %10, i32 0, i32 6
  %12 = load ptr, ptr %11, align 8, !tbaa !46
  %13 = load i32, ptr %4, align 4, !tbaa !8
  %14 = sext i32 %13 to i64
  %15 = getelementptr inbounds %struct.Bac_Ntk_t_, ptr %12, i64 %14
  br label %17

16:                                               ; preds = %2
  br label %17

17:                                               ; preds = %16, %9
  %18 = phi ptr [ %15, %9 ], [ null, %16 ]
  ret ptr %18
}

; Function Attrs: inlinehint nounwind uwtable
define internal i32 @Bac_BoxNtkId(ptr noundef %0, i32 noundef %1) #2 {
  %3 = alloca ptr, align 8
  %4 = alloca i32, align 4
  store ptr %0, ptr %3, align 8, !tbaa !19
  store i32 %1, ptr %4, align 4, !tbaa !8
  %5 = load ptr, ptr %3, align 8, !tbaa !19
  %6 = getelementptr inbounds nuw %struct.Bac_Ntk_t_, ptr %5, i32 0, i32 11
  %7 = load i32, ptr %4, align 4, !tbaa !8
  %8 = call i32 @Vec_IntEntry(ptr noundef %6, i32 noundef %7)
  ret i32 %8
}

; Function Attrs: inlinehint nounwind uwtable
define internal i32 @Bac_TypeIsBox(i32 noundef %0) #2 {
  %2 = alloca i32, align 4
  store i32 %0, ptr %2, align 4, !tbaa !8
  %3 = load i32, ptr %2, align 4, !tbaa !8
  %4 = icmp uge i32 %3, 5
  br i1 %4, label %5, label %8

5:                                                ; preds = %1
  %6 = load i32, ptr %2, align 4, !tbaa !8
  %7 = icmp ult i32 %6, 73
  br label %8

8:                                                ; preds = %5, %1
  %9 = phi i1 [ false, %1 ], [ %7, %5 ]
  %10 = zext i1 %9 to i32
  ret i32 %10
}

; Function Attrs: inlinehint nounwind uwtable
define internal i32 @Bac_ObjType(ptr noundef %0, i32 noundef %1) #2 {
  %3 = alloca ptr, align 8
  %4 = alloca i32, align 4
  store ptr %0, ptr %3, align 8, !tbaa !19
  store i32 %1, ptr %4, align 4, !tbaa !8
  %5 = load ptr, ptr %3, align 8, !tbaa !19
  %6 = getelementptr inbounds nuw %struct.Bac_Ntk_t_, ptr %5, i32 0, i32 10
  %7 = load i32, ptr %4, align 4, !tbaa !8
  %8 = call signext i8 @Vec_StrEntry(ptr noundef %6, i32 noundef %7)
  %9 = zext i8 %8 to i32
  %10 = call i32 @Abc_Lit2Var(i32 noundef %9)
  ret i32 %10
}

; Function Attrs: inlinehint nounwind uwtable
define internal i32 @Vec_StrSize(ptr noundef %0) #2 {
  %2 = alloca ptr, align 8
  store ptr %0, ptr %2, align 8, !tbaa !102
  %3 = load ptr, ptr %2, align 8, !tbaa !102
  %4 = getelementptr inbounds nuw %struct.Vec_Str_t_, ptr %3, i32 0, i32 1
  %5 = load i32, ptr %4, align 4, !tbaa !104
  ret i32 %5
}

; Function Attrs: inlinehint nounwind uwtable
define internal i32 @Bac_BoxSize(ptr noundef %0, i32 noundef %1) #2 {
  %3 = alloca ptr, align 8
  %4 = alloca i32, align 4
  store ptr %0, ptr %3, align 8, !tbaa !19
  store i32 %1, ptr %4, align 4, !tbaa !8
  %5 = load ptr, ptr %3, align 8, !tbaa !19
  %6 = load i32, ptr %4, align 4, !tbaa !8
  %7 = call i32 @Bac_BoxBiNum(ptr noundef %5, i32 noundef %6)
  %8 = add nsw i32 1, %7
  %9 = load ptr, ptr %3, align 8, !tbaa !19
  %10 = load i32, ptr %4, align 4, !tbaa !8
  %11 = call i32 @Bac_BoxBoNum(ptr noundef %9, i32 noundef %10)
  %12 = add nsw i32 %8, %11
  ret i32 %12
}

; Function Attrs: inlinehint nounwind uwtable
define internal i32 @Bac_BoxBoNum(ptr noundef %0, i32 noundef %1) #2 {
  %3 = alloca ptr, align 8
  %4 = alloca i32, align 4
  %5 = alloca i32, align 4
  store ptr %0, ptr %3, align 8, !tbaa !19
  store i32 %1, ptr %4, align 4, !tbaa !8
  call void @llvm.lifetime.start.p0(i64 4, ptr %5) #10
  %6 = load i32, ptr %4, align 4, !tbaa !8
  %7 = add nsw i32 %6, 1
  store i32 %7, ptr %5, align 4, !tbaa !8
  br label %8

8:                                                ; preds = %21, %2
  %9 = load i32, ptr %4, align 4, !tbaa !8
  %10 = add nsw i32 %9, 1
  store i32 %10, ptr %4, align 4, !tbaa !8
  %11 = load ptr, ptr %3, align 8, !tbaa !19
  %12 = call i32 @Bac_NtkObjNum(ptr noundef %11)
  %13 = icmp slt i32 %10, %12
  br i1 %13, label %14, label %19

14:                                               ; preds = %8
  %15 = load ptr, ptr %3, align 8, !tbaa !19
  %16 = load i32, ptr %4, align 4, !tbaa !8
  %17 = call i32 @Bac_ObjIsBo(ptr noundef %15, i32 noundef %16)
  %18 = icmp ne i32 %17, 0
  br label %19

19:                                               ; preds = %14, %8
  %20 = phi i1 [ false, %8 ], [ %18, %14 ]
  br i1 %20, label %21, label %22

21:                                               ; preds = %19
  br label %8, !llvm.loop !69

22:                                               ; preds = %19
  %23 = load i32, ptr %4, align 4, !tbaa !8
  %24 = load i32, ptr %5, align 4, !tbaa !8
  %25 = sub nsw i32 %23, %24
  call void @llvm.lifetime.end.p0(i64 4, ptr %5) #10
  ret i32 %25
}

; Function Attrs: inlinehint nounwind uwtable
define internal ptr @Bac_BoxNtk(ptr noundef %0, i32 noundef %1) #2 {
  %3 = alloca ptr, align 8
  %4 = alloca i32, align 4
  store ptr %0, ptr %3, align 8, !tbaa !19
  store i32 %1, ptr %4, align 4, !tbaa !8
  %5 = load ptr, ptr %3, align 8, !tbaa !19
  %6 = getelementptr inbounds nuw %struct.Bac_Ntk_t_, ptr %5, i32 0, i32 0
  %7 = load ptr, ptr %6, align 8, !tbaa !23
  %8 = load ptr, ptr %3, align 8, !tbaa !19
  %9 = load i32, ptr %4, align 4, !tbaa !8
  %10 = call i32 @Bac_BoxNtkId(ptr noundef %8, i32 noundef %9)
  %11 = call ptr @Bac_ManNtk(ptr noundef %7, i32 noundef %10)
  ret ptr %11
}

; Function Attrs: inlinehint nounwind uwtable
define internal i32 @Bac_ObjIsBoxUser(ptr noundef %0, i32 noundef %1) #2 {
  %3 = alloca ptr, align 8
  %4 = alloca i32, align 4
  store ptr %0, ptr %3, align 8, !tbaa !19
  store i32 %1, ptr %4, align 4, !tbaa !8
  %5 = load ptr, ptr %3, align 8, !tbaa !19
  %6 = load i32, ptr %4, align 4, !tbaa !8
  %7 = call i32 @Bac_ObjType(ptr noundef %5, i32 noundef %6)
  %8 = icmp eq i32 %7, 5
  %9 = zext i1 %8 to i32
  ret i32 %9
}

; Function Attrs: inlinehint nounwind uwtable
define internal i32 @Bac_ObjIsBox(ptr noundef %0, i32 noundef %1) #2 {
  %3 = alloca ptr, align 8
  %4 = alloca i32, align 4
  store ptr %0, ptr %3, align 8, !tbaa !19
  store i32 %1, ptr %4, align 4, !tbaa !8
  %5 = load ptr, ptr %3, align 8, !tbaa !19
  %6 = load i32, ptr %4, align 4, !tbaa !8
  %7 = call i32 @Bac_ObjType(ptr noundef %5, i32 noundef %6)
  %8 = call i32 @Bac_TypeIsBox(i32 noundef %7)
  ret i32 %8
}

; Function Attrs: inlinehint nounwind uwtable
define internal i32 @Bac_NtkObjNum(ptr noundef %0) #2 {
  %2 = alloca ptr, align 8
  store ptr %0, ptr %2, align 8, !tbaa !19
  %3 = load ptr, ptr %2, align 8, !tbaa !19
  %4 = getelementptr inbounds nuw %struct.Bac_Ntk_t_, ptr %3, i32 0, i32 10
  %5 = call i32 @Vec_StrSize(ptr noundef %4)
  ret i32 %5
}

; Function Attrs: nounwind uwtable
define i32 @Bac_ManClpObjNum_rec(ptr noundef %0) #0 {
  %2 = alloca i32, align 4
  %3 = alloca ptr, align 8
  %4 = alloca i32, align 4
  %5 = alloca i32, align 4
  %6 = alloca i32, align 4
  store ptr %0, ptr %3, align 8, !tbaa !19
  call void @llvm.lifetime.start.p0(i64 4, ptr %4) #10
  call void @llvm.lifetime.start.p0(i64 4, ptr %5) #10
  store i32 0, ptr %5, align 4, !tbaa !8
  %7 = load ptr, ptr %3, align 8, !tbaa !19
  %8 = getelementptr inbounds nuw %struct.Bac_Ntk_t_, ptr %7, i32 0, i32 5
  %9 = load i32, ptr %8, align 8, !tbaa !67
  %10 = icmp sge i32 %9, 0
  br i1 %10, label %11, label %15

11:                                               ; preds = %1
  %12 = load ptr, ptr %3, align 8, !tbaa !19
  %13 = getelementptr inbounds nuw %struct.Bac_Ntk_t_, ptr %12, i32 0, i32 5
  %14 = load i32, ptr %13, align 8, !tbaa !67
  store i32 %14, ptr %2, align 4
  store i32 1, ptr %6, align 4
  br label %58

15:                                               ; preds = %1
  store i32 0, ptr %4, align 4, !tbaa !8
  br label %16

16:                                               ; preds = %51, %15
  %17 = load i32, ptr %4, align 4, !tbaa !8
  %18 = load ptr, ptr %3, align 8, !tbaa !19
  %19 = call i32 @Bac_NtkObjNum(ptr noundef %18)
  %20 = icmp slt i32 %17, %19
  br i1 %20, label %21, label %54

21:                                               ; preds = %16
  %22 = load ptr, ptr %3, align 8, !tbaa !19
  %23 = load i32, ptr %4, align 4, !tbaa !8
  %24 = call i32 @Bac_ObjIsBox(ptr noundef %22, i32 noundef %23)
  %25 = icmp ne i32 %24, 0
  br i1 %25, label %27, label %26

26:                                               ; preds = %21
  br label %50

27:                                               ; preds = %21
  %28 = load ptr, ptr %3, align 8, !tbaa !19
  %29 = load i32, ptr %4, align 4, !tbaa !8
  %30 = call i32 @Bac_ObjIsBoxUser(ptr noundef %28, i32 noundef %29)
  %31 = icmp ne i32 %30, 0
  br i1 %31, label %32, label %42

32:                                               ; preds = %27
  %33 = load ptr, ptr %3, align 8, !tbaa !19
  %34 = load i32, ptr %4, align 4, !tbaa !8
  %35 = call ptr @Bac_BoxNtk(ptr noundef %33, i32 noundef %34)
  %36 = call i32 @Bac_ManClpObjNum_rec(ptr noundef %35)
  %37 = load ptr, ptr %3, align 8, !tbaa !19
  %38 = load i32, ptr %4, align 4, !tbaa !8
  %39 = call i32 @Bac_BoxBoNum(ptr noundef %37, i32 noundef %38)
  %40 = mul nsw i32 3, %39
  %41 = add nsw i32 %36, %40
  br label %46

42:                                               ; preds = %27
  %43 = load ptr, ptr %3, align 8, !tbaa !19
  %44 = load i32, ptr %4, align 4, !tbaa !8
  %45 = call i32 @Bac_BoxSize(ptr noundef %43, i32 noundef %44)
  br label %46

46:                                               ; preds = %42, %32
  %47 = phi i32 [ %41, %32 ], [ %45, %42 ]
  %48 = load i32, ptr %5, align 4, !tbaa !8
  %49 = add nsw i32 %48, %47
  store i32 %49, ptr %5, align 4, !tbaa !8
  br label %50

50:                                               ; preds = %46, %26
  br label %51

51:                                               ; preds = %50
  %52 = load i32, ptr %4, align 4, !tbaa !8
  %53 = add nsw i32 %52, 1
  store i32 %53, ptr %4, align 4, !tbaa !8
  br label %16, !llvm.loop !68

54:                                               ; preds = %16
  %55 = load i32, ptr %5, align 4, !tbaa !8
  %56 = load ptr, ptr %3, align 8, !tbaa !19
  %57 = getelementptr inbounds nuw %struct.Bac_Ntk_t_, ptr %56, i32 0, i32 5
  store i32 %55, ptr %57, align 8, !tbaa !67
  store i32 %55, ptr %2, align 4
  store i32 1, ptr %6, align 4
  br label %58

58:                                               ; preds = %54, %11
  call void @llvm.lifetime.end.p0(i64 4, ptr %5) #10
  call void @llvm.lifetime.end.p0(i64 4, ptr %4) #10
  %59 = load i32, ptr %2, align 4
  ret i32 %59
}