; Function Attrs: nofree nosync nounwind memory(readwrite, inaccessiblemem: none) uwtable
define i32 @Bac_ManClpObjNum_rec(ptr noundef captures(none) %0) local_unnamed_addr #9 {
  %2 = getelementptr inbounds nuw i8, ptr %0, i64 24
  %3 = load i32, ptr %2, align 8, !tbaa !63
  %4 = icmp sgt i32 %3, -1
  br i1 %4, label %63, label %.preheader

.preheader:                                       ; preds = %1
  %5 = getelementptr i8, ptr %0, i64 84
  %.val28 = load i32, ptr %5, align 4, !tbaa !33
  %6 = icmp sgt i32 %.val28, 0
  br i1 %6, label %.lr.ph, label %._crit_edge

.lr.ph:                                           ; preds = %.preheader
  %7 = getelementptr i8, ptr %0, i64 88
  %8 = getelementptr i8, ptr %0, i64 104
  br label %9

9:                                                ; preds = %.lr.ph, %60
  %.val38 = phi i32 [ %.val28, %.lr.ph ], [ %.val, %60 ]
  %indvars.iv = phi i64 [ 0, %.lr.ph ], [ %indvars.iv.next, %60 ]
  %.031 = phi i32 [ 0, %.lr.ph ], [ %.1, %60 ]
  %.val22 = load ptr, ptr %7, align 8, !tbaa !34
  %10 = getelementptr inbounds nuw i8, ptr %.val22, i64 %indvars.iv
  %11 = load i8, ptr %10, align 1, !tbaa !25
  %12 = lshr i8 %11, 1
  %13 = add nsw i8 %12, -73
  %14 = icmp ult i8 %13, -68
  br i1 %14, label %60, label %15

15:                                               ; preds = %9
  %.mask.i = and i8 %11, -2
  %.not = icmp eq i8 %.mask.i, 10
  br i1 %.not, label %16, label %.preheader41

16:                                               ; preds = %15
  %.val24 = load ptr, ptr %0, align 8, !tbaa !16
  %.val25 = load ptr, ptr %8, align 8, !tbaa !23
  %17 = getelementptr inbounds nuw i32, ptr %.val25, i64 %indvars.iv
  %18 = load i32, ptr %17, align 4, !tbaa !24
  %19 = icmp sgt i32 %18, 0
  br i1 %19, label %Bac_ManNtkIsOk.exit.i.i, label %Bac_BoxNtk.exit

Bac_ManNtkIsOk.exit.i.i:                          ; preds = %16
  %20 = getelementptr i8, ptr %.val24, i64 36
  %.val.i.i.i = load i32, ptr %20, align 4, !tbaa !37
  %.not4.i.i = icmp sgt i32 %18, %.val.i.i.i
  br i1 %.not4.i.i, label %Bac_BoxNtk.exit, label %21

21:                                               ; preds = %Bac_ManNtkIsOk.exit.i.i
  %22 = getelementptr inbounds nuw i8, ptr %.val24, i64 40
  %23 = load ptr, ptr %22, align 8, !tbaa !42
  %24 = zext nneg i32 %18 to i64
  %25 = getelementptr inbounds nuw %struct.Bac_Ntk_t_, ptr %23, i64 %24
  br label %Bac_BoxNtk.exit

Bac_BoxNtk.exit:                                  ; preds = %16, %Bac_ManNtkIsOk.exit.i.i, %21
  %26 = phi ptr [ %25, %21 ], [ null, %Bac_ManNtkIsOk.exit.i.i ], [ null, %16 ]
  %27 = tail call i32 @Bac_ManClpObjNum_rec(ptr noundef %26)
  %.val.i = load i32, ptr %5, align 4, !tbaa !33
  %28 = sext i32 %.val.i to i64
  %29 = trunc i64 %indvars.iv to i32
  %30 = add i32 %29, 1
  %smax.i = tail call i32 @llvm.smax.i32(i32 %.val.i, i32 %30)
  %31 = add nsw i32 %smax.i, -1
  br label %32

32:                                               ; preds = %34, %Bac_BoxNtk.exit
  %indvars.iv.i = phi i64 [ %indvars.iv.next.i, %34 ], [ %indvars.iv, %Bac_BoxNtk.exit ]
  %indvars.iv.next.i = add nuw nsw i64 %indvars.iv.i, 1
  %33 = icmp slt i64 %indvars.iv.next.i, %28
  br i1 %33, label %34, label %Bac_BoxBoNum.exit

34:                                               ; preds = %32
  %.val7.i = load ptr, ptr %7, align 8, !tbaa !34
  %35 = getelementptr inbounds nuw i8, ptr %.val7.i, i64 %indvars.iv.next.i
  %36 = load i8, ptr %35, align 1, !tbaa !25
  %.mask.i.i = and i8 %36, -2
  %.not.i = icmp eq i8 %.mask.i.i, 8
  br i1 %.not.i, label %32, label %.critedge.split.loop.exit9.i, !llvm.loop !64

.critedge.split.loop.exit9.i:                     ; preds = %34
  %37 = trunc nsw i64 %indvars.iv.i to i32
  br label %Bac_BoxBoNum.exit

Bac_BoxBoNum.exit:                                ; preds = %32, %.critedge.split.loop.exit9.i
  %.0.lcssa.i = phi i32 [ %37, %.critedge.split.loop.exit9.i ], [ %31, %32 ]
  %38 = trunc nuw nsw i64 %indvars.iv to i32
  %39 = sub i32 %.0.lcssa.i, %38
  %40 = mul nsw i32 %39, 3
  %41 = add nsw i32 %40, %27
  br label %57

.preheader41:                                     ; preds = %15, %44
  %indvars.iv.i.i = phi i64 [ %45, %44 ], [ %indvars.iv, %15 ]
  %42 = trunc nuw i64 %indvars.iv.i.i to i32
  %43 = icmp sgt i32 %42, 0
  br i1 %43, label %44, label %Bac_BoxBiNum.exit.i

44:                                               ; preds = %.preheader41
  %45 = add nsw i64 %indvars.iv.i.i, -1
  %46 = getelementptr inbounds nuw i8, ptr %.val22, i64 %45
  %47 = load i8, ptr %46, align 1, !tbaa !25
  %.mask.i.i.i = and i8 %47, -2
  %.not.i.i = icmp eq i8 %.mask.i.i.i, 6
  br i1 %.not.i.i, label %.preheader41, label %Bac_BoxBiNum.exit.i, !llvm.loop !65

Bac_BoxBiNum.exit.i:                              ; preds = %44, %.preheader41
  %.0.lcssa.i.i = phi i32 [ 0, %.preheader41 ], [ %42, %44 ]
  %48 = sext i32 %.val38 to i64
  %49 = add nsw i32 %.val38, -1
  br label %50

50:                                               ; preds = %52, %Bac_BoxBiNum.exit.i
  %indvars.iv.i4.i = phi i64 [ %indvars.iv.next.i.i, %52 ], [ %indvars.iv, %Bac_BoxBiNum.exit.i ]
  %indvars.iv.next.i.i = add nuw nsw i64 %indvars.iv.i4.i, 1
  %51 = icmp slt i64 %indvars.iv.next.i.i, %48
  br i1 %51, label %52, label %Bac_BoxSize.exit

52:                                               ; preds = %50
  %53 = getelementptr inbounds nuw i8, ptr %.val22, i64 %indvars.iv.next.i.i
  %54 = load i8, ptr %53, align 1, !tbaa !25
  %.mask.i.i6.i = and i8 %54, -2
  %.not.i7.i = icmp eq i8 %.mask.i.i6.i, 8
  br i1 %.not.i7.i, label %50, label %.critedge.split.loop.exit9.i.i, !llvm.loop !64

.critedge.split.loop.exit9.i.i:                   ; preds = %52
  %55 = trunc nsw i64 %indvars.iv.i4.i to i32
  br label %Bac_BoxSize.exit

Bac_BoxSize.exit:                                 ; preds = %50, %.critedge.split.loop.exit9.i.i
  %.0.lcssa.i5.i = phi i32 [ %55, %.critedge.split.loop.exit9.i.i ], [ %49, %50 ]
  %reass.sub = sub i32 %.0.lcssa.i5.i, %.0.lcssa.i.i
  %56 = add i32 %reass.sub, 1
  br label %57

57:                                               ; preds = %Bac_BoxSize.exit, %Bac_BoxBoNum.exit
  %.val36 = phi i32 [ %.val.i, %Bac_BoxBoNum.exit ], [ %.val38, %Bac_BoxSize.exit ]
  %58 = phi i32 [ %41, %Bac_BoxBoNum.exit ], [ %56, %Bac_BoxSize.exit ]
  %59 = add nsw i32 %58, %.031
  br label %60

60:                                               ; preds = %57, %9
  %.val = phi i32 [ %.val36, %57 ], [ %.val38, %9 ]
  %.1 = phi i32 [ %59, %57 ], [ %.031, %9 ]
  %indvars.iv.next = add nuw nsw i64 %indvars.iv, 1
  %61 = sext i32 %.val to i64
  %62 = icmp slt i64 %indvars.iv.next, %61
  br i1 %62, label %9, label %._crit_edge, !llvm.loop !66

._crit_edge:                                      ; preds = %60, %.preheader
  %.0.lcssa = phi i32 [ 0, %.preheader ], [ %.1, %60 ]
  store i32 %.0.lcssa, ptr %2, align 8, !tbaa !63
  br label %63

63:                                               ; preds = %1, %._crit_edge
  %.019 = phi i32 [ %.0.lcssa, %._crit_edge ], [ %3, %1 ]
  ret i32 %.019
}